target datalayout = "e-m:e-p270:32:32-p271:32:32-p272:64:64-i64:64-i128:128-f80:128-n8:16:32:64-S128"
target triple = "x86_64-pc-linux-gnu"

%"class.nlsat::atom" = type { i32, i32, i32, i32 }
%"class.nlsat::root_atom" = type { %"class.nlsat::atom", i32, i32, ptr }

; Function Attrs: mustprogress uwtable
define hidden noundef i32 @_ZNK5nlsat9root_atom9hash_procclEPKS0_(ptr noundef nonnull align 1 dereferenceable(1) %0, ptr noundef %1) #6 align 2 {
  %3 = alloca ptr, align 8
  %4 = alloca ptr, align 8
  %5 = alloca i32, align 4
  %6 = alloca i32, align 4
  %7 = alloca i32, align 4
  store ptr %0, ptr %3, align 8, !tbaa !54
  store ptr %1, ptr %4, align 8, !tbaa !48
  call void @llvm.lifetime.start.p0(i64 4, ptr %5) #3
  %8 = load ptr, ptr %4, align 8, !tbaa !48
  %9 = getelementptr inbounds nuw %"class.nlsat::root_atom", ptr %8, i32 0, i32 1
  %10 = load i32, ptr %9, align 8, !tbaa !50
  store i32 %10, ptr %5, align 4, !tbaa !8
  call void @llvm.lifetime.start.p0(i64 4, ptr %6) #3
  %11 = load ptr, ptr %4, align 8, !tbaa !48
  %12 = getelementptr inbounds nuw %"class.nlsat::root_atom", ptr %11, i32 0, i32 2
  %13 = load i32, ptr %12, align 4, !tbaa !52
  %14 = shl i32 %13, 2
  %15 = load ptr, ptr %4, align 8, !tbaa !48
  %16 = getelementptr inbounds nuw %"class.nlsat::atom", ptr %15, i32 0, i32 0
  %17 = load i32, ptr %16, align 8, !tbaa !34
  %18 = or i32 %14, %17
  store i32 %18, ptr %6, align 4, !tbaa !8
  call void @llvm.lifetime.start.p0(i64 4, ptr %7) #3
  %19 = load ptr, ptr %4, align 8, !tbaa !48
  %20 = getelementptr inbounds nuw %"class.nlsat::root_atom", ptr %19, i32 0, i32 3
  %21 = load ptr, ptr %20, align 8, !tbaa !53
  %22 = call noundef i32 @_ZN10polynomial7manager2idEPKNS_10polynomialE(ptr noundef %21)
  store i32 %22, ptr %7, align 4, !tbaa !8
  %23 = load i32, ptr %6, align 4, !tbaa !8
  %24 = load i32, ptr %5, align 4, !tbaa !8
  %25 = sub i32 %24, %23
  store i32 %25, ptr %5, align 4, !tbaa !8
  %26 = load i32, ptr %7, align 4, !tbaa !8
  %27 = load i32, ptr %5, align 4, !tbaa !8
  %28 = sub i32 %27, %26
  store i32 %28, ptr %5, align 4, !tbaa !8
  %29 = load i32, ptr %7, align 4, !tbaa !8
  %30 = lshr i32 %29, 13
  %31 = load i32, ptr %5, align 4, !tbaa !8
  %32 = xor i32 %31, %30
  store i32 %32, ptr %5, align 4, !tbaa !8
  %33 = load i32, ptr %7, align 4, !tbaa !8
  %34 = load i32, ptr %6, align 4, !tbaa !8
  %35 = sub i32 %34, %33
  store i32 %35, ptr %6, align 4, !tbaa !8
  %36 = load i32, ptr %5, align 4, !tbaa !8
  %37 = load i32, ptr %6, align 4, !tbaa !8
  %38 = sub i32 %37, %36
  store i32 %38, ptr %6, align 4, !tbaa !8
  %39 = load i32, ptr %5, align 4, !tbaa !8
  %40 = shl i32 %39, 8
  %41 = load i32, ptr %6, align 4, !tbaa !8
  %42 = xor i32 %41, %40
  store i32 %42, ptr %6, align 4, !tbaa !8
  %43 = load i32, ptr %5, align 4, !tbaa !8
  %44 = load i32, ptr %7, align 4, !tbaa !8
  %45 = sub i32 %44, %43
  store i32 %45, ptr %7, align 4, !tbaa !8
  %46 = load i32, ptr %6, align 4, !tbaa !8
  %47 = load i32, ptr %7, align 4, !tbaa !8
  %48 = sub i32 %47, %46
  store i32 %48, ptr %7, align 4, !tbaa !8
  %49 = load i32, ptr %6, align 4, !tbaa !8
  %50 = lshr i32 %49, 13
  %51 = load i32, ptr %7, align 4, !tbaa !8
  %52 = xor i32 %51, %50
  store i32 %52, ptr %7, align 4, !tbaa !8
  %53 = load i32, ptr %6, align 4, !tbaa !8
  %54 = load i32, ptr %5, align 4, !tbaa !8
  %55 = sub i32 %54, %53
  store i32 %55, ptr %5, align 4, !tbaa !8
  %56 = load i32, ptr %7, align 4, !tbaa !8
  %57 = load i32, ptr %5, align 4, !tbaa !8
  %58 = sub i32 %57, %56
  store i32 %58, ptr %5, align 4, !tbaa !8
  %59 = load i32, ptr %7, align 4, !tbaa !8
  %60 = lshr i32 %59, 12
  %61 = load i32, ptr %5, align 4, !tbaa !8
  %62 = xor i32 %61, %60
  store i32 %62, ptr %5, align 4, !tbaa !8
  %63 = load i32, ptr %7, align 4, !tbaa !8
  %64 = load i32, ptr %6, align 4, !tbaa !8
  %65 = sub i32 %64, %63
  store i32 %65, ptr %6, align 4, !tbaa !8
  %66 = load i32, ptr %5, align 4, !tbaa !8
  %67 = load i32, ptr %6, align 4, !tbaa !8
  %68 = sub i32 %67, %66
  store i32 %68, ptr %6, align 4, !tbaa !8
  %69 = load i32, ptr %5, align 4, !tbaa !8
  %70 = shl i32 %69, 16
  %71 = load i32, ptr %6, align 4, !tbaa !8
  %72 = xor i32 %71, %70
  store i32 %72, ptr %6, align 4, !tbaa !8
  %73 = load i32, ptr %5, align 4, !tbaa !8
  %74 = load i32, ptr %7, align 4, !tbaa !8
  %75 = sub i32 %74, %73
  store i32 %75, ptr %7, align 4, !tbaa !8
  %76 = load i32, ptr %6, align 4, !tbaa !8
  %77 = load i32, ptr %7, align 4, !tbaa !8
  %78 = sub i32 %77, %76
  store i32 %78, ptr %7, align 4, !tbaa !8
  %79 = load i32, ptr %6, align 4, !tbaa !8
  %80 = lshr i32 %79, 5
  %81 = load i32, ptr %7, align 4, !tbaa !8
  %82 = xor i32 %81, %80
  store i32 %82, ptr %7, align 4, !tbaa !8
  %83 = load i32, ptr %6, align 4, !tbaa !8
  %84 = load i32, ptr %5, align 4, !tbaa !8
  %85 = sub i32 %84, %83
  store i32 %85, ptr %5, align 4, !tbaa !8
  %86 = load i32, ptr %7, align 4, !tbaa !8
  %87 = load i32, ptr %5, align 4, !tbaa !8
  %88 = sub i32 %87, %86
  store i32 %88, ptr %5, align 4, !tbaa !8
  %89 = load i32, ptr %7, align 4, !tbaa !8
  %90 = lshr i32 %89, 3
  %91 = load i32, ptr %5, align 4, !tbaa !8
  %92 = xor i32 %91, %90
  store i32 %92, ptr %5, align 4, !tbaa !8
  %93 = load i32, ptr %7, align 4, !tbaa !8
  %94 = load i32, ptr %6, align 4, !tbaa !8
  %95 = sub i32 %94, %93
  store i32 %95, ptr %6, align 4, !tbaa !8
  %96 = load i32, ptr %5, align 4, !tbaa !8
  %97 = load i32, ptr %6, align 4, !tbaa !8
  %98 = sub i32 %97, %96
  store i32 %98, ptr %6, align 4, !tbaa !8
  %99 = load i32, ptr %5, align 4, !tbaa !8
  %100 = shl i32 %99, 10
  %101 = load i32, ptr %6, align 4, !tbaa !8
  %102 = xor i32 %101, %100
  store i32 %102, ptr %6, align 4, !tbaa !8
  %103 = load i32, ptr %5, align 4, !tbaa !8
  %104 = load i32, ptr %7, align 4, !tbaa !8
  %105 = sub i32 %104, %103
  store i32 %105, ptr %7, align 4, !tbaa !8
  %106 = load i32, ptr %6, align 4, !tbaa !8
  %107 = load i32, ptr %7, align 4, !tbaa !8
  %108 = sub i32 %107, %106
  store i32 %108, ptr %7, align 4, !tbaa !8
  %109 = load i32, ptr %6, align 4, !tbaa !8
  %110 = lshr i32 %109, 15
  %111 = load i32, ptr %7, align 4, !tbaa !8
  %112 = xor i32 %111, %110
  store i32 %112, ptr %7, align 4, !tbaa !8
  %113 = load i32, ptr %7, align 4, !tbaa !8
  call void @llvm.lifetime.end.p0(i64 4, ptr %7) #3
  call void @llvm.lifetime.end.p0(i64 4, ptr %6) #3
  call void @llvm.lifetime.end.p0(i64 4, ptr %5) #3
  ret i32 %113
}