; Function Attrs: mustprogress uwtable
define hidden noundef i32 @_ZNK5nlsat9root_atom9hash_procclEPKS0_(ptr noundef nonnull readnone align 1 captures(none) dereferenceable(1) %0, ptr noundef readonly captures(none) %1) local_unnamed_addr #5 align 2 {
  %3 = getelementptr inbounds nuw i8, ptr %1, i64 16
  %4 = load i32, ptr %3, align 8, !tbaa !25
  %5 = getelementptr inbounds nuw i8, ptr %1, i64 20
  %6 = load i32, ptr %5, align 4, !tbaa !27
  %7 = shl i32 %6, 2
  %8 = load i32, ptr %1, align 8, !tbaa !3
  %9 = or i32 %7, %8
  %10 = getelementptr inbounds nuw i8, ptr %1, i64 24
  %11 = load ptr, ptr %10, align 8, !tbaa !28
  %12 = tail call noundef i32 @_ZN10polynomial7manager2idEPKNS_10polynomialE(ptr noundef %11)
  %13 = add i32 %9, %12
  %14 = sub i32 %4, %13
  %15 = lshr i32 %12, 13
  %16 = xor i32 %14, %15
  %17 = add i32 %12, %16
  %18 = sub i32 %9, %17
  %19 = shl i32 %16, 8
  %20 = xor i32 %18, %19
  %21 = add i32 %16, %20
  %22 = sub i32 %12, %21
  %23 = lshr i32 %20, 13
  %24 = xor i32 %22, %23
  %25 = add i32 %20, %24
  %26 = sub i32 %16, %25
  %27 = lshr i32 %24, 12
  %28 = xor i32 %26, %27
  %29 = add i32 %24, %28
  %30 = sub i32 %20, %29
  %31 = shl i32 %28, 16
  %32 = xor i32 %30, %31
  %33 = add i32 %28, %32
  %34 = sub i32 %24, %33
  %35 = lshr i32 %32, 5
  %36 = xor i32 %34, %35
  %37 = add i32 %32, %36
  %38 = sub i32 %28, %37
  %39 = lshr i32 %36, 3
  %40 = xor i32 %38, %39
  %41 = add i32 %36, %40
  %42 = sub i32 %32, %41
  %43 = shl i32 %40, 10
  %44 = xor i32 %42, %43
  %45 = add i32 %40, %44
  %46 = sub i32 %36, %45
  %47 = lshr i32 %44, 15
  %48 = xor i32 %46, %47
  ret i32 %48
}